target datalayout = "e-m:e-p270:32:32-p271:32:32-p272:64:64-i64:64-i128:128-f80:128-n8:16:32:64-S128"
target triple = "x86_64-pc-linux-gnu"

%struct.opj_tcd = type { i32, i32, i32, i32, i32, ptr, ptr, ptr, ptr, i32, i8, ptr, i32, i32, i32, i32, i32, ptr }
%struct.opj_tcd_image = type { ptr }
%struct.opj_tcd_tile = type { i32, i32, i32, i32, i32, ptr, i64, double, [100 x double], i32 }
%struct.opj_tcd_tilecomp = type { i32, i32, i32, i32, i32, i32, i32, ptr, i32, ptr, i32, i64, i64, ptr, i32, i32, i32, i32, i64 }
%struct.opj_tcd_resolution = type { i32, i32, i32, i32, i32, i32, i32, [3 x %struct.opj_tcd_band], i32, i32, i32, i32 }
%struct.opj_tcd_band = type { i32, i32, i32, i32, i32, ptr, i32, i32, float }
%struct.opj_tcd_precinct = type { i32, i32, i32, i32, i32, i32, %union.anon.0, i32, ptr, ptr }
%union.anon.0 = type { ptr }

; Function Attrs: nounwind uwtable
define internal void @opj_tcd_free_tile(ptr noundef %0) #0 {
  %2 = alloca ptr, align 8
  %3 = alloca i32, align 4
  %4 = alloca i32, align 4
  %5 = alloca i32, align 4
  %6 = alloca i32, align 4
  %7 = alloca ptr, align 8
  %8 = alloca ptr, align 8
  %9 = alloca ptr, align 8
  %10 = alloca ptr, align 8
  %11 = alloca ptr, align 8
  %12 = alloca i32, align 4
  %13 = alloca i32, align 4
  %14 = alloca ptr, align 8
  %15 = alloca i32, align 4
  store ptr %0, ptr %2, align 8, !tbaa !7
  call void @llvm.lifetime.start.p0(i64 4, ptr %3) #8
  call void @llvm.lifetime.start.p0(i64 4, ptr %4) #8
  call void @llvm.lifetime.start.p0(i64 4, ptr %5) #8
  call void @llvm.lifetime.start.p0(i64 4, ptr %6) #8
  call void @llvm.lifetime.start.p0(i64 8, ptr %7) #8
  store ptr null, ptr %7, align 8, !tbaa !40
  call void @llvm.lifetime.start.p0(i64 8, ptr %8) #8
  store ptr null, ptr %8, align 8, !tbaa !41
  call void @llvm.lifetime.start.p0(i64 8, ptr %9) #8
  store ptr null, ptr %9, align 8, !tbaa !42
  call void @llvm.lifetime.start.p0(i64 8, ptr %10) #8
  store ptr null, ptr %10, align 8, !tbaa !44
  call void @llvm.lifetime.start.p0(i64 8, ptr %11) #8
  store ptr null, ptr %11, align 8, !tbaa !46
  call void @llvm.lifetime.start.p0(i64 4, ptr %12) #8
  call void @llvm.lifetime.start.p0(i64 4, ptr %13) #8
  call void @llvm.lifetime.start.p0(i64 8, ptr %14) #8
  store ptr null, ptr %14, align 8, !tbaa !48
  %16 = load ptr, ptr %2, align 8, !tbaa !7
  %17 = icmp ne ptr %16, null
  br i1 %17, label %19, label %18

18:                                               ; preds = %1
  store i32 1, ptr %15, align 4
  br label %178

19:                                               ; preds = %1
  %20 = load ptr, ptr %2, align 8, !tbaa !7
  %21 = getelementptr inbounds nuw %struct.opj_tcd, ptr %20, i32 0, i32 5
  %22 = load ptr, ptr %21, align 8, !tbaa !10
  %23 = icmp ne ptr %22, null
  br i1 %23, label %25, label %24

24:                                               ; preds = %19
  store i32 1, ptr %15, align 4
  br label %178

25:                                               ; preds = %19
  %26 = load ptr, ptr %2, align 8, !tbaa !7
  %27 = getelementptr inbounds nuw %struct.opj_tcd, ptr %26, i32 0, i32 10
  %28 = load i8, ptr %27, align 4
  %29 = and i8 %28, 1
  %30 = zext i8 %29 to i32
  %31 = icmp ne i32 %30, 0
  br i1 %31, label %32, label %33

32:                                               ; preds = %25
  store ptr @opj_tcd_code_block_dec_deallocate, ptr %14, align 8, !tbaa !48
  br label %34

33:                                               ; preds = %25
  store ptr @opj_tcd_code_block_enc_deallocate, ptr %14, align 8, !tbaa !48
  br label %34

34:                                               ; preds = %33, %32
  %35 = load ptr, ptr %2, align 8, !tbaa !7
  %36 = getelementptr inbounds nuw %struct.opj_tcd, ptr %35, i32 0, i32 5
  %37 = load ptr, ptr %36, align 8, !tbaa !10
  %38 = getelementptr inbounds nuw %struct.opj_tcd_image, ptr %37, i32 0, i32 0
  %39 = load ptr, ptr %38, align 8, !tbaa !23
  store ptr %39, ptr %7, align 8, !tbaa !40
  %40 = load ptr, ptr %7, align 8, !tbaa !40
  %41 = icmp ne ptr %40, null
  br i1 %41, label %43, label %42

42:                                               ; preds = %34
  store i32 1, ptr %15, align 4
  br label %178

43:                                               ; preds = %34
  %44 = load ptr, ptr %7, align 8, !tbaa !40
  %45 = getelementptr inbounds nuw %struct.opj_tcd_tile, ptr %44, i32 0, i32 5
  %46 = load ptr, ptr %45, align 8, !tbaa !30
  store ptr %46, ptr %8, align 8, !tbaa !41
  store i32 0, ptr %3, align 4, !tbaa !3
  br label %47

47:                                               ; preds = %160, %43
  %48 = load i32, ptr %3, align 4, !tbaa !3
  %49 = load ptr, ptr %7, align 8, !tbaa !40
  %50 = getelementptr inbounds nuw %struct.opj_tcd_tile, ptr %49, i32 0, i32 4
  %51 = load i32, ptr %50, align 8, !tbaa !35
  %52 = icmp ult i32 %48, %51
  br i1 %52, label %53, label %163

53:                                               ; preds = %47
  %54 = load ptr, ptr %8, align 8, !tbaa !41
  %55 = getelementptr inbounds nuw %struct.opj_tcd_tilecomp, ptr %54, i32 0, i32 7
  %56 = load ptr, ptr %55, align 8, !tbaa !49
  store ptr %56, ptr %9, align 8, !tbaa !42
  %57 = load ptr, ptr %9, align 8, !tbaa !42
  %58 = icmp ne ptr %57, null
  br i1 %58, label %59, label %132

59:                                               ; preds = %53
  %60 = load ptr, ptr %8, align 8, !tbaa !41
  %61 = getelementptr inbounds nuw %struct.opj_tcd_tilecomp, ptr %60, i32 0, i32 8
  %62 = load i32, ptr %61, align 8, !tbaa !51
  %63 = udiv i32 %62, 192
  store i32 %63, ptr %12, align 4, !tbaa !3
  store i32 0, ptr %4, align 4, !tbaa !3
  br label %64

64:                                               ; preds = %123, %59
  %65 = load i32, ptr %4, align 4, !tbaa !3
  %66 = load i32, ptr %12, align 4, !tbaa !3
  %67 = icmp ult i32 %65, %66
  br i1 %67, label %68, label %126

68:                                               ; preds = %64
  %69 = load ptr, ptr %9, align 8, !tbaa !42
  %70 = getelementptr inbounds nuw %struct.opj_tcd_resolution, ptr %69, i32 0, i32 7
  %71 = getelementptr inbounds [3 x %struct.opj_tcd_band], ptr %70, i64 0, i64 0
  store ptr %71, ptr %10, align 8, !tbaa !44
  store i32 0, ptr %5, align 4, !tbaa !3
  br label %72

72:                                               ; preds = %117, %68
  %73 = load i32, ptr %5, align 4, !tbaa !3
  %74 = icmp ult i32 %73, 3
  br i1 %74, label %75, label %120

75:                                               ; preds = %72
  %76 = load ptr, ptr %10, align 8, !tbaa !44
  %77 = getelementptr inbounds nuw %struct.opj_tcd_band, ptr %76, i32 0, i32 5
  %78 = load ptr, ptr %77, align 8, !tbaa !52
  store ptr %78, ptr %11, align 8, !tbaa !46
  %79 = load ptr, ptr %11, align 8, !tbaa !46
  %80 = icmp ne ptr %79, null
  br i1 %80, label %81, label %114

81:                                               ; preds = %75
  %82 = load ptr, ptr %10, align 8, !tbaa !44
  %83 = getelementptr inbounds nuw %struct.opj_tcd_band, ptr %82, i32 0, i32 6
  %84 = load i32, ptr %83, align 8, !tbaa !55
  %85 = udiv i32 %84, 56
  store i32 %85, ptr %13, align 4, !tbaa !3
  store i32 0, ptr %6, align 4, !tbaa !3
  br label %86

86:                                               ; preds = %105, %81
  %87 = load i32, ptr %6, align 4, !tbaa !3
  %88 = load i32, ptr %13, align 4, !tbaa !3
  %89 = icmp ult i32 %87, %88
  br i1 %89, label %90, label %108

90:                                               ; preds = %86
  %91 = load ptr, ptr %11, align 8, !tbaa !46
  %92 = getelementptr inbounds nuw %struct.opj_tcd_precinct, ptr %91, i32 0, i32 8
  %93 = load ptr, ptr %92, align 8, !tbaa !56
  call void @opj_tgt_destroy(ptr noundef %93)
  %94 = load ptr, ptr %11, align 8, !tbaa !46
  %95 = getelementptr inbounds nuw %struct.opj_tcd_precinct, ptr %94, i32 0, i32 8
  store ptr null, ptr %95, align 8, !tbaa !56
  %96 = load ptr, ptr %11, align 8, !tbaa !46
  %97 = getelementptr inbounds nuw %struct.opj_tcd_precinct, ptr %96, i32 0, i32 9
  %98 = load ptr, ptr %97, align 8, !tbaa !59
  call void @opj_tgt_destroy(ptr noundef %98)
  %99 = load ptr, ptr %11, align 8, !tbaa !46
  %100 = getelementptr inbounds nuw %struct.opj_tcd_precinct, ptr %99, i32 0, i32 9
  store ptr null, ptr %100, align 8, !tbaa !59
  %101 = load ptr, ptr %14, align 8, !tbaa !48
  %102 = load ptr, ptr %11, align 8, !tbaa !46
  call void %101(ptr noundef %102)
  %103 = load ptr, ptr %11, align 8, !tbaa !46
  %104 = getelementptr inbounds nuw %struct.opj_tcd_precinct, ptr %103, i32 1
  store ptr %104, ptr %11, align 8, !tbaa !46
  br label %105

105:                                              ; preds = %90
  %106 = load i32, ptr %6, align 4, !tbaa !3
  %107 = add i32 %106, 1
  store i32 %107, ptr %6, align 4, !tbaa !3
  br label %86, !llvm.loop !60

108:                                              ; preds = %86
  %109 = load ptr, ptr %10, align 8, !tbaa !44
  %110 = getelementptr inbounds nuw %struct.opj_tcd_band, ptr %109, i32 0, i32 5
  %111 = load ptr, ptr %110, align 8, !tbaa !52
  call void @opj_free(ptr noundef %111)
  %112 = load ptr, ptr %10, align 8, !tbaa !44
  %113 = getelementptr inbounds nuw %struct.opj_tcd_band, ptr %112, i32 0, i32 5
  store ptr null, ptr %113, align 8, !tbaa !52
  br label %114

114:                                              ; preds = %108, %75
  %115 = load ptr, ptr %10, align 8, !tbaa !44
  %116 = getelementptr inbounds nuw %struct.opj_tcd_band, ptr %115, i32 1
  store ptr %116, ptr %10, align 8, !tbaa !44
  br label %117

117:                                              ; preds = %114
  %118 = load i32, ptr %5, align 4, !tbaa !3
  %119 = add i32 %118, 1
  store i32 %119, ptr %5, align 4, !tbaa !3
  br label %72, !llvm.loop !62

120:                                              ; preds = %72
  %121 = load ptr, ptr %9, align 8, !tbaa !42
  %122 = getelementptr inbounds nuw %struct.opj_tcd_resolution, ptr %121, i32 1
  store ptr %122, ptr %9, align 8, !tbaa !42
  br label %123

123:                                              ; preds = %120
  %124 = load i32, ptr %4, align 4, !tbaa !3
  %125 = add i32 %124, 1
  store i32 %125, ptr %4, align 4, !tbaa !3
  br label %64, !llvm.loop !63

126:                                              ; preds = %64
  %127 = load ptr, ptr %8, align 8, !tbaa !41
  %128 = getelementptr inbounds nuw %struct.opj_tcd_tilecomp, ptr %127, i32 0, i32 7
  %129 = load ptr, ptr %128, align 8, !tbaa !49
  call void @opj_free(ptr noundef %129)
  %130 = load ptr, ptr %8, align 8, !tbaa !41
  %131 = getelementptr inbounds nuw %struct.opj_tcd_tilecomp, ptr %130, i32 0, i32 7
  store ptr null, ptr %131, align 8, !tbaa !49
  br label %132

132:                                              ; preds = %126, %53
  %133 = load ptr, ptr %8, align 8, !tbaa !41
  %134 = getelementptr inbounds nuw %struct.opj_tcd_tilecomp, ptr %133, i32 0, i32 10
  %135 = load i32, ptr %134, align 8, !tbaa !64
  %136 = icmp ne i32 %135, 0
  br i1 %136, label %137, label %154

137:                                              ; preds = %132
  %138 = load ptr, ptr %8, align 8, !tbaa !41
  %139 = getelementptr inbounds nuw %struct.opj_tcd_tilecomp, ptr %138, i32 0, i32 9
  %140 = load ptr, ptr %139, align 8, !tbaa !65
  %141 = icmp ne ptr %140, null
  br i1 %141, label %142, label %154

142:                                              ; preds = %137
  %143 = load ptr, ptr %8, align 8, !tbaa !41
  %144 = getelementptr inbounds nuw %struct.opj_tcd_tilecomp, ptr %143, i32 0, i32 9
  %145 = load ptr, ptr %144, align 8, !tbaa !65
  call void @opj_image_data_free(ptr noundef %145)
  %146 = load ptr, ptr %8, align 8, !tbaa !41
  %147 = getelementptr inbounds nuw %struct.opj_tcd_tilecomp, ptr %146, i32 0, i32 9
  store ptr null, ptr %147, align 8, !tbaa !65
  %148 = load ptr, ptr %8, align 8, !tbaa !41
  %149 = getelementptr inbounds nuw %struct.opj_tcd_tilecomp, ptr %148, i32 0, i32 10
  store i32 0, ptr %149, align 8, !tbaa !64
  %150 = load ptr, ptr %8, align 8, !tbaa !41
  %151 = getelementptr inbounds nuw %struct.opj_tcd_tilecomp, ptr %150, i32 0, i32 12
  store i64 0, ptr %151, align 8, !tbaa !66
  %152 = load ptr, ptr %8, align 8, !tbaa !41
  %153 = getelementptr inbounds nuw %struct.opj_tcd_tilecomp, ptr %152, i32 0, i32 11
  store i64 0, ptr %153, align 8, !tbaa !67
  br label %154

154:                                              ; preds = %142, %137, %132
  %155 = load ptr, ptr %8, align 8, !tbaa !41
  %156 = getelementptr inbounds nuw %struct.opj_tcd_tilecomp, ptr %155, i32 0, i32 13
  %157 = load ptr, ptr %156, align 8, !tbaa !68
  call void @opj_image_data_free(ptr noundef %157)
  %158 = load ptr, ptr %8, align 8, !tbaa !41
  %159 = getelementptr inbounds nuw %struct.opj_tcd_tilecomp, ptr %158, i32 1
  store ptr %159, ptr %8, align 8, !tbaa !41
  br label %160

160:                                              ; preds = %154
  %161 = load i32, ptr %3, align 4, !tbaa !3
  %162 = add i32 %161, 1
  store i32 %162, ptr %3, align 4, !tbaa !3
  br label %47, !llvm.loop !69

163:                                              ; preds = %47
  %164 = load ptr, ptr %7, align 8, !tbaa !40
  %165 = getelementptr inbounds nuw %struct.opj_tcd_tile, ptr %164, i32 0, i32 5
  %166 = load ptr, ptr %165, align 8, !tbaa !30
  call void @opj_free(ptr noundef %166)
  %167 = load ptr, ptr %7, align 8, !tbaa !40
  %168 = getelementptr inbounds nuw %struct.opj_tcd_tile, ptr %167, i32 0, i32 5
  store ptr null, ptr %168, align 8, !tbaa !30
  %169 = load ptr, ptr %2, align 8, !tbaa !7
  %170 = getelementptr inbounds nuw %struct.opj_tcd, ptr %169, i32 0, i32 5
  %171 = load ptr, ptr %170, align 8, !tbaa !10
  %172 = getelementptr inbounds nuw %struct.opj_tcd_image, ptr %171, i32 0, i32 0
  %173 = load ptr, ptr %172, align 8, !tbaa !23
  call void @opj_free(ptr noundef %173)
  %174 = load ptr, ptr %2, align 8, !tbaa !7
  %175 = getelementptr inbounds nuw %struct.opj_tcd, ptr %174, i32 0, i32 5
  %176 = load ptr, ptr %175, align 8, !tbaa !10
  %177 = getelementptr inbounds nuw %struct.opj_tcd_image, ptr %176, i32 0, i32 0
  store ptr null, ptr %177, align 8, !tbaa !23
  store i32 0, ptr %15, align 4
  br label %178

178:                                              ; preds = %163, %42, %24, %18
  call void @llvm.lifetime.end.p0(i64 8, ptr %14) #8
  call void @llvm.lifetime.end.p0(i64 4, ptr %13) #8
  call void @llvm.lifetime.end.p0(i64 4, ptr %12) #8
  call void @llvm.lifetime.end.p0(i64 8, ptr %11) #8
  call void @llvm.lifetime.end.p0(i64 8, ptr %10) #8
  call void @llvm.lifetime.end.p0(i64 8, ptr %9) #8
  call void @llvm.lifetime.end.p0(i64 8, ptr %8) #8
  call void @llvm.lifetime.end.p0(i64 8, ptr %7) #8
  call void @llvm.lifetime.end.p0(i64 4, ptr %6) #8
  call void @llvm.lifetime.end.p0(i64 4, ptr %5) #8
  call void @llvm.lifetime.end.p0(i64 4, ptr %4) #8
  call void @llvm.lifetime.end.p0(i64 4, ptr %3) #8
  %179 = load i32, ptr %15, align 4
  switch i32 %179, label %181 [
    i32 0, label %180
    i32 1, label %180
  ]

180:                                              ; preds = %178, %178
  ret void

181:                                              ; preds = %178
  unreachable
}

; Function Attrs: nounwind uwtable
define hidden void @opj_tcd_destroy(ptr noundef %0) #0 {
  %2 = alloca ptr, align 8
  store ptr %0, ptr %2, align 8, !tbaa !7
  %3 = load ptr, ptr %2, align 8, !tbaa !7
  %4 = icmp ne ptr %3, null
  br i1 %4, label %5, label %22

5:                                                ; preds = %1
  %6 = load ptr, ptr %2, align 8, !tbaa !7
  call void @opj_tcd_free_tile(ptr noundef %6)
  %7 = load ptr, ptr %2, align 8, !tbaa !7
  %8 = getelementptr inbounds nuw %struct.opj_tcd, ptr %7, i32 0, i32 5
  %9 = load ptr, ptr %8, align 8, !tbaa !10
  %10 = icmp ne ptr %9, null
  br i1 %10, label %11, label %17

11:                                               ; preds = %5
  %12 = load ptr, ptr %2, align 8, !tbaa !7
  %13 = getelementptr inbounds nuw %struct.opj_tcd, ptr %12, i32 0, i32 5
  %14 = load ptr, ptr %13, align 8, !tbaa !10
  call void @opj_free(ptr noundef %14)
  %15 = load ptr, ptr %2, align 8, !tbaa !7
  %16 = getelementptr inbounds nuw %struct.opj_tcd, ptr %15, i32 0, i32 5
  store ptr null, ptr %16, align 8, !tbaa !10
  br label %17

17:                                               ; preds = %11, %5
  %18 = load ptr, ptr %2, align 8, !tbaa !7
  %19 = getelementptr inbounds nuw %struct.opj_tcd, ptr %18, i32 0, i32 17
  %20 = load ptr, ptr %19, align 8, !tbaa !39
  call void @opj_free(ptr noundef %20)
  %21 = load ptr, ptr %2, align 8, !tbaa !7
  call void @opj_free(ptr noundef %21)
  br label %22

22:                                               ; preds = %17, %1
  ret void
}