; Function Attrs: nounwind uwtable
define hidden void @opj_tcd_destroy(ptr noundef %0) local_unnamed_addr #0 {
  %.not = icmp eq ptr %0, null
  br i1 %.not, label %65, label %2

2:                                                ; preds = %1
  %3 = getelementptr inbounds nuw i8, ptr %0, i64 24
  %4 = load ptr, ptr %3, align 8, !tbaa !3
  %.not.i = icmp eq ptr %4, null
  br i1 %.not.i, label %opj_tcd_free_tile.exit.thread, label %5

5:                                                ; preds = %2
  %6 = getelementptr inbounds nuw i8, ptr %0, i64 60
  %7 = load i8, ptr %6, align 4
  %8 = and i8 %7, 1
  %.not62.i = icmp eq i8 %8, 0
  %opj_tcd_code_block_enc_deallocate.opj_tcd_code_block_dec_deallocate.i = select i1 %.not62.i, ptr @opj_tcd_code_block_enc_deallocate, ptr @opj_tcd_code_block_dec_deallocate
  %9 = load ptr, ptr %4, align 8, !tbaa !17
  %.not63.i = icmp eq ptr %9, null
  br i1 %.not63.i, label %opj_tcd_free_tile.exit, label %10

10:                                               ; preds = %5
  %11 = getelementptr inbounds nuw i8, ptr %9, i64 24
  %12 = load ptr, ptr %11, align 8, !tbaa !24
  %13 = getelementptr inbounds nuw i8, ptr %9, i64 16
  %14 = load i32, ptr %13, align 8, !tbaa !29
  %.not82.i = icmp eq i32 %14, 0
  br i1 %.not82.i, label %opj_tcd_free_tile.exit.thread10, label %.lr.ph80.i

.lr.ph80.i:                                       ; preds = %10, %51
  %.04978.i = phi i32 [ %55, %51 ], [ 0, %10 ]
  %.05477.i = phi ptr [ %54, %51 ], [ %12, %10 ]
  %15 = getelementptr inbounds nuw i8, ptr %.05477.i, i64 32
  %16 = load ptr, ptr %15, align 8, !tbaa !33
  %.not64.i = icmp eq ptr %16, null
  br i1 %.not64.i, label %43, label %17

17:                                               ; preds = %.lr.ph80.i
  %18 = getelementptr inbounds nuw i8, ptr %.05477.i, i64 40
  %19 = load i32, ptr %18, align 8, !tbaa !36
  %20 = udiv i32 %19, 192
  %.not83.i = icmp ult i32 %19, 192
  br i1 %.not83.i, label %._crit_edge76.i, label %.lr.ph75.i

.lr.ph75.i:                                       ; preds = %17, %39
  %.05073.i = phi i32 [ %41, %39 ], [ 0, %17 ]
  %.05372.i = phi ptr [ %40, %39 ], [ %16, %17 ]
  %21 = getelementptr inbounds nuw i8, ptr %.05372.i, i64 32
  br label %22

22:                                               ; preds = %36, %.lr.ph75.i
  %.05271.i = phi ptr [ %21, %.lr.ph75.i ], [ %37, %36 ]
  %.05670.i = phi i32 [ 0, %.lr.ph75.i ], [ %38, %36 ]
  %23 = getelementptr inbounds nuw i8, ptr %.05271.i, i64 24
  %24 = load ptr, ptr %23, align 8, !tbaa !37
  %.not67.i = icmp eq ptr %24, null
  br i1 %.not67.i, label %36, label %25

25:                                               ; preds = %22
  %26 = getelementptr inbounds nuw i8, ptr %.05271.i, i64 32
  %27 = load i32, ptr %26, align 8, !tbaa !41
  %28 = udiv i32 %27, 56
  %.not84.i = icmp ult i32 %27, 56
  br i1 %.not84.i, label %._crit_edge.i, label %.lr.ph.i

.lr.ph.i:                                         ; preds = %25, %.lr.ph.i
  %.05169.i = phi ptr [ %33, %.lr.ph.i ], [ %24, %25 ]
  %.05568.i = phi i32 [ %34, %.lr.ph.i ], [ 0, %25 ]
  %29 = getelementptr inbounds nuw i8, ptr %.05169.i, i64 40
  %30 = load ptr, ptr %29, align 8, !tbaa !42
  tail call void @opj_tgt_destroy(ptr noundef %30) #16
  store ptr null, ptr %29, align 8, !tbaa !42
  %31 = getelementptr inbounds nuw i8, ptr %.05169.i, i64 48
  %32 = load ptr, ptr %31, align 8, !tbaa !45
  tail call void @opj_tgt_destroy(ptr noundef %32) #16
  store ptr null, ptr %31, align 8, !tbaa !45
  tail call void %opj_tcd_code_block_enc_deallocate.opj_tcd_code_block_dec_deallocate.i(ptr noundef nonnull %.05169.i) #16, !callees !46
  %33 = getelementptr inbounds nuw i8, ptr %.05169.i, i64 56
  %34 = add nuw nsw i32 %.05568.i, 1
  %exitcond.not.i = icmp eq i32 %34, %28
  br i1 %exitcond.not.i, label %._crit_edge.loopexit.i, label %.lr.ph.i, !llvm.loop !47

._crit_edge.loopexit.i:                           ; preds = %.lr.ph.i
  %.pre.i = load ptr, ptr %23, align 8, !tbaa !37
  br label %._crit_edge.i

._crit_edge.i:                                    ; preds = %._crit_edge.loopexit.i, %25
  %35 = phi ptr [ %.pre.i, %._crit_edge.loopexit.i ], [ %24, %25 ]
  tail call void @opj_free(ptr noundef %35) #16
  store ptr null, ptr %23, align 8, !tbaa !37
  br label %36

36:                                               ; preds = %._crit_edge.i, %22
  %37 = getelementptr inbounds nuw i8, ptr %.05271.i, i64 48
  %38 = add nuw nsw i32 %.05670.i, 1
  %exitcond85.not.i = icmp eq i32 %38, 3
  br i1 %exitcond85.not.i, label %39, label %22, !llvm.loop !49

39:                                               ; preds = %36
  %40 = getelementptr inbounds nuw i8, ptr %.05372.i, i64 192
  %41 = add nuw nsw i32 %.05073.i, 1
  %exitcond86.not.i = icmp eq i32 %41, %20
  br i1 %exitcond86.not.i, label %._crit_edge76.loopexit.i, label %.lr.ph75.i, !llvm.loop !50

._crit_edge76.loopexit.i:                         ; preds = %39
  %.pre87.i = load ptr, ptr %15, align 8, !tbaa !33
  br label %._crit_edge76.i

._crit_edge76.i:                                  ; preds = %._crit_edge76.loopexit.i, %17
  %42 = phi ptr [ %.pre87.i, %._crit_edge76.loopexit.i ], [ %16, %17 ]
  tail call void @opj_free(ptr noundef %42) #16
  store ptr null, ptr %15, align 8, !tbaa !33
  br label %43

43:                                               ; preds = %._crit_edge76.i, %.lr.ph80.i
  %44 = getelementptr inbounds nuw i8, ptr %.05477.i, i64 56
  %45 = load i32, ptr %44, align 8, !tbaa !51
  %.not65.i = icmp eq i32 %45, 0
  br i1 %.not65.i, label %51, label %46

46:                                               ; preds = %43
  %47 = getelementptr inbounds nuw i8, ptr %.05477.i, i64 48
  %48 = load ptr, ptr %47, align 8, !tbaa !52
  %.not66.i = icmp eq ptr %48, null
  br i1 %.not66.i, label %51, label %49

49:                                               ; preds = %46
  tail call void @opj_image_data_free(ptr noundef nonnull %48) #16
  store ptr null, ptr %47, align 8, !tbaa !52
  store i32 0, ptr %44, align 8, !tbaa !51
  %50 = getelementptr inbounds nuw i8, ptr %.05477.i, i64 64
  tail call void @llvm.memset.p0.i64(ptr noundef nonnull align 8 dereferenceable(16) %50, i8 0, i64 16, i1 false)
  br label %51

51:                                               ; preds = %49, %46, %43
  %52 = getelementptr inbounds nuw i8, ptr %.05477.i, i64 80
  %53 = load ptr, ptr %52, align 8, !tbaa !53
  tail call void @opj_image_data_free(ptr noundef %53) #16
  %54 = getelementptr inbounds nuw i8, ptr %.05477.i, i64 112
  %55 = add nuw i32 %.04978.i, 1
  %56 = load i32, ptr %13, align 8, !tbaa !29
  %57 = icmp ult i32 %55, %56
  br i1 %57, label %.lr.ph80.i, label %._crit_edge81.loopexit.i, !llvm.loop !54

._crit_edge81.loopexit.i:                         ; preds = %51
  %.pre88.i = load ptr, ptr %11, align 8, !tbaa !24
  br label %opj_tcd_free_tile.exit.thread10

opj_tcd_free_tile.exit.thread10:                  ; preds = %10, %._crit_edge81.loopexit.i
  %58 = phi ptr [ %.pre88.i, %._crit_edge81.loopexit.i ], [ %12, %10 ]
  tail call void @opj_free(ptr noundef %58) #16
  store ptr null, ptr %11, align 8, !tbaa !24
  %59 = load ptr, ptr %3, align 8, !tbaa !3
  %60 = load ptr, ptr %59, align 8, !tbaa !17
  tail call void @opj_free(ptr noundef %60) #16
  %61 = load ptr, ptr %3, align 8, !tbaa !3
  store ptr null, ptr %61, align 8, !tbaa !17
  br label %opj_tcd_free_tile.exit

opj_tcd_free_tile.exit:                           ; preds = %5, %opj_tcd_free_tile.exit.thread10
  %62 = phi ptr [ %61, %opj_tcd_free_tile.exit.thread10 ], [ %4, %5 ]
  tail call void @opj_free(ptr noundef nonnull %62) #16
  store ptr null, ptr %3, align 8, !tbaa !3
  br label %opj_tcd_free_tile.exit.thread

opj_tcd_free_tile.exit.thread:                    ; preds = %2, %opj_tcd_free_tile.exit
  %63 = getelementptr inbounds nuw i8, ptr %0, i64 96
  %64 = load ptr, ptr %63, align 8, !tbaa !55
  tail call void @opj_free(ptr noundef %64) #16
  tail call void @opj_free(ptr noundef nonnull %0) #16
  br label %65

65:                                               ; preds = %opj_tcd_free_tile.exit.thread, %1
  ret void
}